target datalayout = "e-m:e-p270:32:32-p271:32:32-p272:64:64-i64:64-i128:128-f80:128-n8:16:32:64-S128"
target triple = "x86_64-pc-linux-gnu"

%struct._object = type { %union.anon, ptr }
%union.anon = type { i64 }
%struct._list_of_panels = type { ptr, ptr }
%struct.PyCursesPanelObject = type { %struct._object, ptr, ptr }
%struct.anon = type { i32, i32 }

@PyExc_RuntimeError = external global ptr, align 8
@lop = internal global ptr null, align 8
@.str.18 = private unnamed_addr constant [36 x i8] c"remove_lop: can't find Panel Object\00", align 1

; Function Attrs: alwaysinline nounwind uwtable
define internal i32 @_Py_IsImmortal(ptr noundef %0) #4 {
  %2 = alloca ptr, align 8
  store ptr %0, ptr %2, align 8, !tbaa !3
  %3 = load ptr, ptr %2, align 8, !tbaa !3
  %4 = getelementptr inbounds nuw %struct._object, ptr %3, i32 0, i32 0
  %5 = getelementptr inbounds nuw %struct.anon, ptr %4, i32 0, i32 0
  %6 = load i32, ptr %5, align 8, !tbaa !41
  %7 = icmp slt i32 %6, 0
  %8 = zext i1 %7 to i32
  ret i32 %8
}

; Function Attrs: nounwind uwtable
define internal void @remove_lop(ptr noundef %0) #0 {
  %2 = alloca ptr, align 8
  %3 = alloca ptr, align 8
  %4 = alloca ptr, align 8
  %5 = alloca i32, align 4
  store ptr %0, ptr %2, align 8, !tbaa !8
  call void @llvm.lifetime.start.p0(i64 8, ptr %3) #5
  call void @llvm.lifetime.start.p0(i64 8, ptr %4) #5
  %6 = load ptr, ptr @lop, align 8, !tbaa !32
  store ptr %6, ptr %3, align 8, !tbaa !32
  %7 = load ptr, ptr %3, align 8, !tbaa !32
  %8 = getelementptr inbounds nuw %struct._list_of_panels, ptr %7, i32 0, i32 0
  %9 = load ptr, ptr %8, align 8, !tbaa !34
  %10 = load ptr, ptr %2, align 8, !tbaa !8
  %11 = icmp eq ptr %9, %10
  br i1 %11, label %12, label %17

12:                                               ; preds = %1
  %13 = load ptr, ptr %3, align 8, !tbaa !32
  %14 = getelementptr inbounds nuw %struct._list_of_panels, ptr %13, i32 0, i32 1
  %15 = load ptr, ptr %14, align 8, !tbaa !38
  store ptr %15, ptr @lop, align 8, !tbaa !32
  %16 = load ptr, ptr %3, align 8, !tbaa !32
  call void @PyMem_Free(ptr noundef %16)
  store i32 1, ptr %5, align 4
  br label %56

17:                                               ; preds = %1
  br label %18

18:                                               ; preds = %40, %17
  %19 = load ptr, ptr %3, align 8, !tbaa !32
  %20 = getelementptr inbounds nuw %struct._list_of_panels, ptr %19, i32 0, i32 1
  %21 = load ptr, ptr %20, align 8, !tbaa !38
  %22 = icmp eq ptr %21, null
  br i1 %22, label %31, label %23

23:                                               ; preds = %18
  %24 = load ptr, ptr %3, align 8, !tbaa !32
  %25 = getelementptr inbounds nuw %struct._list_of_panels, ptr %24, i32 0, i32 1
  %26 = load ptr, ptr %25, align 8, !tbaa !38
  %27 = getelementptr inbounds nuw %struct._list_of_panels, ptr %26, i32 0, i32 0
  %28 = load ptr, ptr %27, align 8, !tbaa !34
  %29 = load ptr, ptr %2, align 8, !tbaa !8
  %30 = icmp ne ptr %28, %29
  br label %31

31:                                               ; preds = %23, %18
  %32 = phi i1 [ true, %18 ], [ %30, %23 ]
  br i1 %32, label %33, label %44

33:                                               ; preds = %31
  %34 = load ptr, ptr %3, align 8, !tbaa !32
  %35 = getelementptr inbounds nuw %struct._list_of_panels, ptr %34, i32 0, i32 1
  %36 = load ptr, ptr %35, align 8, !tbaa !38
  %37 = icmp eq ptr %36, null
  br i1 %37, label %38, label %40

38:                                               ; preds = %33
  %39 = load ptr, ptr @PyExc_RuntimeError, align 8, !tbaa !3
  call void @PyErr_SetString(ptr noundef %39, ptr noundef @.str.18)
  store i32 1, ptr %5, align 4
  br label %56

40:                                               ; preds = %33
  %41 = load ptr, ptr %3, align 8, !tbaa !32
  %42 = getelementptr inbounds nuw %struct._list_of_panels, ptr %41, i32 0, i32 1
  %43 = load ptr, ptr %42, align 8, !tbaa !38
  store ptr %43, ptr %3, align 8, !tbaa !32
  br label %18, !llvm.loop !47

44:                                               ; preds = %31
  %45 = load ptr, ptr %3, align 8, !tbaa !32
  %46 = getelementptr inbounds nuw %struct._list_of_panels, ptr %45, i32 0, i32 1
  %47 = load ptr, ptr %46, align 8, !tbaa !38
  %48 = getelementptr inbounds nuw %struct._list_of_panels, ptr %47, i32 0, i32 1
  %49 = load ptr, ptr %48, align 8, !tbaa !38
  store ptr %49, ptr %4, align 8, !tbaa !32
  %50 = load ptr, ptr %3, align 8, !tbaa !32
  %51 = getelementptr inbounds nuw %struct._list_of_panels, ptr %50, i32 0, i32 1
  %52 = load ptr, ptr %51, align 8, !tbaa !38
  call void @PyMem_Free(ptr noundef %52)
  %53 = load ptr, ptr %4, align 8, !tbaa !32
  %54 = load ptr, ptr %3, align 8, !tbaa !32
  %55 = getelementptr inbounds nuw %struct._list_of_panels, ptr %54, i32 0, i32 1
  store ptr %53, ptr %55, align 8, !tbaa !38
  store i32 1, ptr %5, align 4
  br label %56

56:                                               ; preds = %44, %38, %12
  call void @llvm.lifetime.end.p0(i64 8, ptr %4) #5
  call void @llvm.lifetime.end.p0(i64 8, ptr %3) #5
  ret void
}

; Function Attrs: alwaysinline nounwind uwtable
define internal void @Py_DECREF(ptr noundef %0) #4 {
  %2 = alloca ptr, align 8
  store ptr %0, ptr %2, align 8, !tbaa !3
  %3 = load ptr, ptr %2, align 8, !tbaa !3
  %4 = call i32 @_Py_IsImmortal(ptr noundef %3)
  %5 = icmp ne i32 %4, 0
  br i1 %5, label %6, label %7

6:                                                ; preds = %1
  br label %16

7:                                                ; preds = %1
  %8 = load ptr, ptr %2, align 8, !tbaa !3
  %9 = getelementptr inbounds nuw %struct._object, ptr %8, i32 0, i32 0
  %10 = getelementptr inbounds nuw %struct.anon, ptr %9, i32 0, i32 0
  %11 = load i32, ptr %10, align 8, !tbaa !41
  %12 = add i32 %11, -1
  store i32 %12, ptr %10, align 8, !tbaa !41
  %13 = icmp eq i32 %12, 0
  br i1 %13, label %14, label %16

14:                                               ; preds = %7
  %15 = load ptr, ptr %2, align 8, !tbaa !3
  call void @_Py_Dealloc(ptr noundef %15)
  br label %16

16:                                               ; preds = %6, %14, %7
  ret void
}

; Function Attrs: inlinehint nounwind uwtable
define internal ptr @_Py_TYPE(ptr noundef %0) #3 {
  %2 = alloca ptr, align 8
  store ptr %0, ptr %2, align 8, !tbaa !3
  %3 = load ptr, ptr %2, align 8, !tbaa !3
  %4 = getelementptr inbounds nuw %struct._object, ptr %3, i32 0, i32 1
  %5 = load ptr, ptr %4, align 8, !tbaa !45
  ret ptr %5
}

; Function Attrs: nounwind uwtable
define internal void @PyCursesPanel_Dealloc(ptr noundef %0) #0 {
  %2 = alloca ptr, align 8
  %3 = alloca ptr, align 8
  %4 = alloca ptr, align 8
  %5 = alloca ptr, align 8
  store ptr %0, ptr %2, align 8, !tbaa !3
  call void @llvm.lifetime.start.p0(i64 8, ptr %3) #5
  call void @llvm.lifetime.start.p0(i64 8, ptr %4) #5
  call void @llvm.lifetime.start.p0(i64 8, ptr %5) #5
  %6 = load ptr, ptr %2, align 8, !tbaa !3
  store ptr %6, ptr %5, align 8, !tbaa !8
  %7 = load ptr, ptr %5, align 8, !tbaa !8
  %8 = call ptr @_Py_TYPE(ptr noundef %7)
  store ptr %8, ptr %3, align 8, !tbaa !3
  %9 = load ptr, ptr %5, align 8, !tbaa !8
  %10 = getelementptr inbounds nuw %struct.PyCursesPanelObject, ptr %9, i32 0, i32 1
  %11 = load ptr, ptr %10, align 8, !tbaa !36
  %12 = call ptr @panel_userptr(ptr noundef %11)
  store ptr %12, ptr %4, align 8, !tbaa !3
  %13 = load ptr, ptr %4, align 8, !tbaa !3
  %14 = icmp ne ptr %13, null
  br i1 %14, label %15, label %21

15:                                               ; preds = %1
  %16 = load ptr, ptr %5, align 8, !tbaa !8
  %17 = getelementptr inbounds nuw %struct.PyCursesPanelObject, ptr %16, i32 0, i32 1
  %18 = load ptr, ptr %17, align 8, !tbaa !36
  %19 = call i32 @set_panel_userptr(ptr noundef %18, ptr noundef null)
  %20 = load ptr, ptr %4, align 8, !tbaa !3
  call void @Py_DECREF(ptr noundef %20)
  br label %21

21:                                               ; preds = %15, %1
  %22 = load ptr, ptr %5, align 8, !tbaa !8
  %23 = getelementptr inbounds nuw %struct.PyCursesPanelObject, ptr %22, i32 0, i32 1
  %24 = load ptr, ptr %23, align 8, !tbaa !36
  %25 = call i32 @del_panel(ptr noundef %24)
  %26 = load ptr, ptr %5, align 8, !tbaa !8
  %27 = getelementptr inbounds nuw %struct.PyCursesPanelObject, ptr %26, i32 0, i32 2
  %28 = load ptr, ptr %27, align 8, !tbaa !46
  %29 = icmp ne ptr %28, null
  br i1 %29, label %30, label %35

30:                                               ; preds = %21
  %31 = load ptr, ptr %5, align 8, !tbaa !8
  %32 = getelementptr inbounds nuw %struct.PyCursesPanelObject, ptr %31, i32 0, i32 2
  %33 = load ptr, ptr %32, align 8, !tbaa !46
  call void @Py_DECREF(ptr noundef %33)
  %34 = load ptr, ptr %5, align 8, !tbaa !8
  call void @remove_lop(ptr noundef %34)
  br label %35

35:                                               ; preds = %30, %21
  %36 = load ptr, ptr %5, align 8, !tbaa !8
  call void @PyObject_Free(ptr noundef %36)
  %37 = load ptr, ptr %3, align 8, !tbaa !3
  call void @Py_DECREF(ptr noundef %37)
  call void @llvm.lifetime.end.p0(i64 8, ptr %5) #5
  call void @llvm.lifetime.end.p0(i64 8, ptr %4) #5
  call void @llvm.lifetime.end.p0(i64 8, ptr %3) #5
  ret void
}