; Function Attrs: nounwind uwtable
define internal void @PyCursesPanel_Dealloc(ptr noundef %0) #0 {
  %2 = getelementptr i8, ptr %0, i64 8
  %.val = load ptr, ptr %2, align 8, !tbaa !3
  %3 = getelementptr inbounds nuw i8, ptr %0, i64 16
  %4 = load ptr, ptr %3, align 8, !tbaa !21
  %5 = tail call ptr @panel_userptr(ptr noundef %4) #4
  %.not = icmp eq ptr %5, null
  br i1 %.not, label %Py_DECREF.exit17, label %6

6:                                                ; preds = %1
  %7 = load ptr, ptr %3, align 8, !tbaa !21
  %8 = tail call i32 @set_panel_userptr(ptr noundef %7, ptr noundef null) #4
  %9 = load i32, ptr %5, align 8, !tbaa !14
  %.not.i16 = icmp sgt i32 %9, -1
  br i1 %.not.i16, label %10, label %Py_DECREF.exit17

10:                                               ; preds = %6
  %11 = add nsw i32 %9, -1
  store i32 %11, ptr %5, align 8, !tbaa !14
  %12 = icmp eq i32 %11, 0
  br i1 %12, label %13, label %Py_DECREF.exit17

13:                                               ; preds = %10
  tail call void @_Py_Dealloc(ptr noundef nonnull %5) #4
  br label %Py_DECREF.exit17

Py_DECREF.exit17:                                 ; preds = %13, %10, %6, %1
  %14 = load ptr, ptr %3, align 8, !tbaa !21
  %15 = tail call i32 @del_panel(ptr noundef %14) #4
  %16 = getelementptr inbounds nuw i8, ptr %0, i64 24
  %17 = load ptr, ptr %16, align 8, !tbaa !40
  %.not13 = icmp eq ptr %17, null
  br i1 %.not13, label %remove_lop.exit, label %18

18:                                               ; preds = %Py_DECREF.exit17
  %19 = load i32, ptr %17, align 8, !tbaa !14
  %.not.i14 = icmp sgt i32 %19, -1
  br i1 %.not.i14, label %20, label %Py_DECREF.exit15

20:                                               ; preds = %18
  %21 = add nsw i32 %19, -1
  store i32 %21, ptr %17, align 8, !tbaa !14
  %22 = icmp eq i32 %21, 0
  br i1 %22, label %23, label %Py_DECREF.exit15

23:                                               ; preds = %20
  tail call void @_Py_Dealloc(ptr noundef nonnull %17) #4
  br label %Py_DECREF.exit15

Py_DECREF.exit15:                                 ; preds = %18, %20, %23
  %24 = load ptr, ptr @lop, align 8, !tbaa !17
  %25 = load ptr, ptr %24, align 8, !tbaa !19
  %26 = icmp eq ptr %25, %0
  br i1 %26, label %27, label %.critedge.i

27:                                               ; preds = %Py_DECREF.exit15
  %28 = getelementptr inbounds nuw i8, ptr %24, i64 8
  %29 = load ptr, ptr %28, align 8, !tbaa !24
  store ptr %29, ptr @lop, align 8, !tbaa !17
  tail call void @PyMem_Free(ptr noundef nonnull %24) #4
  br label %remove_lop.exit

.critedge.i:                                      ; preds = %Py_DECREF.exit15, %33
  %.0.i = phi ptr [ %31, %33 ], [ %24, %Py_DECREF.exit15 ]
  %30 = getelementptr inbounds nuw i8, ptr %.0.i, i64 8
  %31 = load ptr, ptr %30, align 8, !tbaa !24
  %32 = icmp eq ptr %31, null
  br i1 %32, label %35, label %33

33:                                               ; preds = %.critedge.i
  %34 = load ptr, ptr %31, align 8, !tbaa !19
  %.not.i20 = icmp eq ptr %34, %0
  br i1 %.not.i20, label %37, label %.critedge.i, !llvm.loop !41

35:                                               ; preds = %.critedge.i
  %36 = load ptr, ptr @PyExc_RuntimeError, align 8, !tbaa !13
  tail call void @PyErr_SetString(ptr noundef %36, ptr noundef nonnull @.str.18) #4
  br label %remove_lop.exit

37:                                               ; preds = %33
  %38 = getelementptr inbounds nuw i8, ptr %.0.i, i64 8
  %39 = getelementptr inbounds nuw i8, ptr %31, i64 8
  %40 = load ptr, ptr %39, align 8, !tbaa !24
  tail call void @PyMem_Free(ptr noundef nonnull %31) #4
  store ptr %40, ptr %38, align 8, !tbaa !24
  br label %remove_lop.exit

remove_lop.exit:                                  ; preds = %37, %35, %27, %Py_DECREF.exit17
  tail call void @PyObject_Free(ptr noundef %0) #4
  %41 = load i32, ptr %.val, align 8, !tbaa !14
  %.not.i = icmp sgt i32 %41, -1
  br i1 %.not.i, label %42, label %Py_DECREF.exit

42:                                               ; preds = %remove_lop.exit
  %43 = add nsw i32 %41, -1
  store i32 %43, ptr %.val, align 8, !tbaa !14
  %44 = icmp eq i32 %43, 0
  br i1 %44, label %45, label %Py_DECREF.exit

45:                                               ; preds = %42
  tail call void @_Py_Dealloc(ptr noundef nonnull %.val) #4
  br label %Py_DECREF.exit

Py_DECREF.exit:                                   ; preds = %remove_lop.exit, %42, %45
  ret void
}